; Function Attrs: mustprogress uwtable
define internal fastcc noundef zeroext i1 @_ZN12_GLOBAL__N_110match_nameERNSt7__cxx1112basic_stringIcSt11char_traitsIcESaIcEEERN5Yosys5RTLIL8IdStringEb(ptr noundef nonnull align 8 dereferenceable(32) %0, ptr nocapture noundef nonnull readonly align 4 dereferenceable(4) %1, i1 noundef zeroext %2) unnamed_addr #4 personality ptr @__gxx_personality_v0 {
  %4 = alloca %"class.std::allocator", align 1
  %5 = alloca %"class.std::__cxx11::basic_string", align 8
  %6 = alloca %"class.std::__cxx11::basic_string", align 8
  %7 = tail call noundef i64 @_ZNKSt7__cxx1112basic_stringIcSt11char_traitsIcESaIcEE4sizeEv(ptr noundef nonnull align 8 dereferenceable(32) %0) #21, !noalias !36
  %.not.i = icmp eq i64 %7, 0
  br i1 %.not.i, label %15, label %8

8:                                                ; preds = %3
  %9 = tail call noundef nonnull align 1 dereferenceable(1) ptr @_ZNKSt7__cxx1112basic_stringIcSt11char_traitsIcESaIcEEixEm(ptr noundef nonnull align 8 dereferenceable(32) %0, i64 noundef 0) #21, !noalias !36
  %10 = load i8, ptr %9, align 1, !noalias !36
  %.not5.i = icmp eq i8 %10, 92
  br i1 %.not5.i, label %15, label %11

11:                                               ; preds = %8
  %12 = tail call noundef nonnull align 1 dereferenceable(1) ptr @_ZNKSt7__cxx1112basic_stringIcSt11char_traitsIcESaIcEEixEm(ptr noundef nonnull align 8 dereferenceable(32) %0, i64 noundef 0) #21, !noalias !36
  %13 = load i8, ptr %12, align 1, !noalias !36
  %.not6.i = icmp eq i8 %13, 36
  br i1 %.not6.i, label %15, label %14

14:                                               ; preds = %11
  call void @_ZStplIcSt11char_traitsIcESaIcEENSt7__cxx1112basic_stringIT_T0_T1_EEPKS5_RKS8_(ptr dead_on_unwind nonnull writable sret(%"class.std::__cxx11::basic_string") align 8 %5, ptr noundef nonnull @.str.38, ptr noundef nonnull align 8 dereferenceable(32) %0)
  br label %_ZN5Yosys5RTLILL9escape_idERKNSt7__cxx1112basic_stringIcSt11char_traitsIcESaIcEEE.exit

15:                                               ; preds = %11, %8, %3
  call void @_ZNSt7__cxx1112basic_stringIcSt11char_traitsIcESaIcEEC1ERKS4_(ptr noundef nonnull align 8 dereferenceable(32) %5, ptr noundef nonnull align 8 dereferenceable(32) %0)
  br label %_ZN5Yosys5RTLILL9escape_idERKNSt7__cxx1112basic_stringIcSt11char_traitsIcESaIcEEE.exit

_ZN5Yosys5RTLILL9escape_idERKNSt7__cxx1112basic_stringIcSt11char_traitsIcESaIcEEE.exit: ; preds = %14, %15
  call void @llvm.lifetime.start.p0(i64 1, ptr nonnull %4)
  %16 = load i32, ptr %1, align 4, !noalias !39
  %17 = sext i32 %16 to i64
  %18 = load ptr, ptr getelementptr inbounds (%"class.std::vector.173", ptr @_ZN5Yosys5RTLIL8IdString18global_id_storage_E, i64 0, i32 0, i32 0, i32 0, i32 1), align 8, !noalias !39
  %19 = load ptr, ptr @_ZN5Yosys5RTLIL8IdString18global_id_storage_E, align 8, !noalias !39
  %20 = ptrtoint ptr %18 to i64
  %21 = ptrtoint ptr %19 to i64
  %22 = sub i64 %20, %21
  %23 = ashr exact i64 %22, 3
  %.not.i.i.i = icmp ugt i64 %23, %17
  br i1 %.not.i.i.i, label %_ZNSt6vectorIPcSaIS0_EE2atEm.exit.i, label %24

24:                                               ; preds = %_ZN5Yosys5RTLILL9escape_idERKNSt7__cxx1112basic_stringIcSt11char_traitsIcESaIcEEE.exit
  invoke void (ptr, ...) @_ZSt24__throw_out_of_range_fmtPKcz(ptr noundef nonnull @.str.37, i64 noundef %17, i64 noundef %23) #24
          to label %.noexc unwind label %32

.noexc:                                           ; preds = %24
  unreachable

_ZNSt6vectorIPcSaIS0_EE2atEm.exit.i:              ; preds = %_ZN5Yosys5RTLILL9escape_idERKNSt7__cxx1112basic_stringIcSt11char_traitsIcESaIcEEE.exit
  %25 = getelementptr inbounds ptr, ptr %19, i64 %17
  %26 = load ptr, ptr %25, align 8, !noalias !39
  call void @_ZNSaIcEC1Ev(ptr noundef nonnull align 1 dereferenceable(1) %4) #21, !noalias !39
  invoke void @_ZNSt7__cxx1112basic_stringIcSt11char_traitsIcESaIcEEC1EPKcRKS3_(ptr noundef nonnull align 8 dereferenceable(32) %6, ptr noundef %26, ptr noundef nonnull align 1 dereferenceable(1) %4)
          to label %29 unwind label %27

27:                                               ; preds = %_ZNSt6vectorIPcSaIS0_EE2atEm.exit.i
  %28 = landingpad { ptr, i32 }
          cleanup
  call void @_ZNSaIcED1Ev(ptr noundef nonnull align 1 dereferenceable(1) %4) #21
  br label %.body

29:                                               ; preds = %_ZNSt6vectorIPcSaIS0_EE2atEm.exit.i
  call void @_ZNSaIcED1Ev(ptr noundef nonnull align 1 dereferenceable(1) %4) #21
  call void @llvm.lifetime.end.p0(i64 1, ptr nonnull %4)
  br i1 %2, label %30, label %34

30:                                               ; preds = %29
  %31 = call fastcc noundef zeroext i1 @_ZN12_GLOBAL__N_121string_compare_nocaseERKNSt7__cxx1112basic_stringIcSt11char_traitsIcESaIcEEES7_(ptr noundef nonnull align 8 dereferenceable(32) %5, ptr noundef nonnull align 8 dereferenceable(32) %6)
  br label %_ZSteqIcEN9__gnu_cxx11__enable_ifIXsr9__is_charIT_EE7__valueEbE6__typeERKNSt7__cxx1112basic_stringIS2_St11char_traitsIS2_ESaIS2_EEESC_.exit

32:                                               ; preds = %24
  %33 = landingpad { ptr, i32 }
          cleanup
  br label %.body

.body:                                            ; preds = %27, %32
  %eh.lpad-body = phi { ptr, i32 } [ %33, %32 ], [ %28, %27 ]
  call void @_ZNSt7__cxx1112basic_stringIcSt11char_traitsIcESaIcEED1Ev(ptr noundef nonnull align 8 dereferenceable(32) %5) #21
  resume { ptr, i32 } %eh.lpad-body

34:                                               ; preds = %29
  %35 = call noundef i64 @_ZNKSt7__cxx1112basic_stringIcSt11char_traitsIcESaIcEE4sizeEv(ptr noundef nonnull align 8 dereferenceable(32) %5) #21
  %36 = call noundef i64 @_ZNKSt7__cxx1112basic_stringIcSt11char_traitsIcESaIcEE4sizeEv(ptr noundef nonnull align 8 dereferenceable(32) %6) #21
  %37 = icmp eq i64 %35, %36
  br i1 %37, label %38, label %_ZSteqIcEN9__gnu_cxx11__enable_ifIXsr9__is_charIT_EE7__valueEbE6__typeERKNSt7__cxx1112basic_stringIS2_St11char_traitsIS2_ESaIS2_EEESC_.exit

38:                                               ; preds = %34
  %39 = call noundef ptr @_ZNKSt7__cxx1112basic_stringIcSt11char_traitsIcESaIcEE4dataEv(ptr noundef nonnull align 8 dereferenceable(32) %5) #21
  %40 = call noundef ptr @_ZNKSt7__cxx1112basic_stringIcSt11char_traitsIcESaIcEE4dataEv(ptr noundef nonnull align 8 dereferenceable(32) %6) #21
  %41 = call noundef i64 @_ZNKSt7__cxx1112basic_stringIcSt11char_traitsIcESaIcEE4sizeEv(ptr noundef nonnull align 8 dereferenceable(32) %5) #21
  %42 = icmp eq i64 %41, 0
  br i1 %42, label %_ZSteqIcEN9__gnu_cxx11__enable_ifIXsr9__is_charIT_EE7__valueEbE6__typeERKNSt7__cxx1112basic_stringIS2_St11char_traitsIS2_ESaIS2_EEESC_.exit, label %43

43:                                               ; preds = %38
  %bcmp.i = call i32 @bcmp(ptr %39, ptr %40, i64 %41)
  %44 = icmp eq i32 %bcmp.i, 0
  br label %_ZSteqIcEN9__gnu_cxx11__enable_ifIXsr9__is_charIT_EE7__valueEbE6__typeERKNSt7__cxx1112basic_stringIS2_St11char_traitsIS2_ESaIS2_EEESC_.exit

_ZSteqIcEN9__gnu_cxx11__enable_ifIXsr9__is_charIT_EE7__valueEbE6__typeERKNSt7__cxx1112basic_stringIS2_St11char_traitsIS2_ESaIS2_EEESC_.exit: ; preds = %43, %38, %34, %30
  %.0 = phi i1 [ %31, %30 ], [ false, %34 ], [ %44, %43 ], [ true, %38 ]
  call void @_ZNSt7__cxx1112basic_stringIcSt11char_traitsIcESaIcEED1Ev(ptr noundef nonnull align 8 dereferenceable(32) %6) #21
  call void @_ZNSt7__cxx1112basic_stringIcSt11char_traitsIcESaIcEED1Ev(ptr noundef nonnull align 8 dereferenceable(32) %5) #21
  ret i1 %.0
}